target datalayout = "e-m:e-p270:32:32-p271:32:32-p272:64:64-i64:64-i128:128-f80:128-n8:16:32:64-S128"
target triple = "x86_64-pc-linux-gnu"

%struct.avifColorPrimariesTable = type { i16, ptr, [8 x float] }

; Function Attrs: nounwind uwtable
define hidden void @avifColorPrimariesGetValues(i16 noundef zeroext %0, ptr noundef %1) #0 {
  %3 = alloca i16, align 2
  %4 = alloca ptr, align 8
  %5 = alloca i32, align 4
  store i16 %0, ptr %3, align 2
  store ptr %1, ptr %4, align 8
  store i32 0, ptr %5, align 4
  br label %6

6:                                                ; preds = %27, %2
  %7 = load i32, ptr %5, align 4
  %8 = icmp slt i32 %7, 11
  br i1 %8, label %9, label %30

9:                                                ; preds = %6
  %10 = load i32, ptr %5, align 4
  %11 = sext i32 %10 to i64
  %12 = getelementptr inbounds [11 x %struct.avifColorPrimariesTable], ptr @avifColorPrimariesTables, i64 0, i64 %11
  %13 = getelementptr inbounds nuw %struct.avifColorPrimariesTable, ptr %12, i32 0, i32 0
  %14 = load i16, ptr %13, align 16
  %15 = zext i16 %14 to i32
  %16 = load i16, ptr %3, align 2
  %17 = zext i16 %16 to i32
  %18 = icmp eq i32 %15, %17
  br i1 %18, label %19, label %26

19:                                               ; preds = %9
  %20 = load ptr, ptr %4, align 8
  %21 = load i32, ptr %5, align 4
  %22 = sext i32 %21 to i64
  %23 = getelementptr inbounds [11 x %struct.avifColorPrimariesTable], ptr @avifColorPrimariesTables, i64 0, i64 %22
  %24 = getelementptr inbounds nuw %struct.avifColorPrimariesTable, ptr %23, i32 0, i32 2
  %25 = getelementptr inbounds [8 x float], ptr %24, i64 0, i64 0
  call void @llvm.memcpy.p0.p0.i64(ptr align 4 %20, ptr align 16 %25, i64 32, i1 false)
  br label %32

26:                                               ; preds = %9
  br label %27

27:                                               ; preds = %26
  %28 = load i32, ptr %5, align 4
  %29 = add nsw i32 %28, 1
  store i32 %29, ptr %5, align 4
  br label %6, !llvm.loop !4

30:                                               ; preds = %6
  %31 = load ptr, ptr %4, align 8
  call void @llvm.memcpy.p0.p0.i64(ptr align 4 %31, ptr align 16 getelementptr inbounds nuw (%struct.avifColorPrimariesTable, ptr @avifColorPrimariesTables, i32 0, i32 2), i64 32, i1 false)
  br label %32

32:                                               ; preds = %30, %19
  ret void
}