; Function Attrs: nofree norecurse nosync nounwind memory(argmem: readwrite) uwtable
define hidden void @avifColorPrimariesGetValues(i16 noundef zeroext %0, ptr nocapture noundef writeonly %1) local_unnamed_addr #0 {
  br label %4

3:                                                ; preds = %4
  %indvars.iv.next = add nuw nsw i64 %indvars.iv, 1
  %exitcond.not = icmp eq i64 %indvars.iv.next, 11
  br i1 %exitcond.not, label %10, label %4, !llvm.loop !4

4:                                                ; preds = %2, %3
  %indvars.iv = phi i64 [ 0, %2 ], [ %indvars.iv.next, %3 ]
  %5 = getelementptr inbounds [11 x %struct.avifColorPrimariesTable], ptr @avifColorPrimariesTables, i64 0, i64 %indvars.iv
  %6 = load i16, ptr %5, align 16
  %7 = icmp eq i16 %6, %0
  br i1 %7, label %8, label %3

8:                                                ; preds = %4
  %9 = getelementptr inbounds nuw i8, ptr %5, i64 16
  tail call void @llvm.memcpy.p0.p0.i64(ptr noundef nonnull align 4 dereferenceable(32) %1, ptr noundef nonnull align 16 dereferenceable(32) %9, i64 32, i1 false)
  br label %11

10:                                               ; preds = %3
  tail call void @llvm.memcpy.p0.p0.i64(ptr noundef nonnull align 4 dereferenceable(32) %1, ptr noundef nonnull align 16 dereferenceable(32) getelementptr inbounds nuw (i8, ptr @avifColorPrimariesTables, i64 16), i64 32, i1 false)
  br label %11

11:                                               ; preds = %10, %8
  ret void
}